; ModuleID = '36/1308.c'
source_filename = "36/1308.c"
target datalayout = "e-m:e-p270:32:32-p271:32:32-p272:64:64-i64:64-f80:128-n8:16:32:64-S128"
target triple = "x86_64-pc-linux-gnu"

@.str = private unnamed_addr constant [6 x i8] c"%s %s\00", align 1
@.str.1 = private unnamed_addr constant [3 x i8] c"NO\00", align 1
@.str.2 = private unnamed_addr constant [4 x i8] c"YES\00", align 1

; Function Attrs: noinline nounwind uwtable
define dso_local i32 @main(i32 %0, i8** %1) #0 {
  %3 = alloca i32, align 4
  %4 = alloca i32, align 4
  %5 = alloca i8**, align 8
  %6 = alloca [1000 x i8], align 16
  %7 = alloca [1000 x i8], align 16
  %8 = alloca [100 x i32], align 16
  %9 = alloca i32, align 4
  %10 = alloca i32, align 4
  %11 = alloca [100 x i32], align 16
  %12 = alloca [100 x i32], align 16
  %13 = alloca i32, align 4
  %14 = alloca i32, align 4
  %15 = alloca i32, align 4
  store i32 0, i32* %3, align 4
  store i32 %0, i32* %4, align 4
  store i8** %1, i8*** %5, align 8
  %16 = bitcast [100 x i32]* %11 to i8*
  call void @llvm.memset.p0i8.i64(i8* align 16 %16, i8 0, i64 400, i1 false)
  %17 = bitcast [100 x i32]* %12 to i8*
  call void @llvm.memset.p0i8.i64(i8* align 16 %17, i8 0, i64 400, i1 false)
  store i32 0, i32* %13, align 4
  %18 = getelementptr inbounds [1000 x i8], [1000 x i8]* %6, i64 0, i64 0
  %19 = getelementptr inbounds [1000 x i8], [1000 x i8]* %7, i64 0, i64 0
  %20 = call i32 (i8*, ...) @__isoc99_scanf(i8* getelementptr inbounds ([6 x i8], [6 x i8]* @.str, i64 0, i64 0), i8* %18, i8* %19)
  %21 = getelementptr inbounds [1000 x i8], [1000 x i8]* %6, i64 0, i64 0
  %22 = call i64 @strlen(i8* %21) #4
  %23 = trunc i64 %22 to i32
  store i32 %23, i32* %9, align 4
  %24 = getelementptr inbounds [1000 x i8], [1000 x i8]* %7, i64 0, i64 0
  %25 = call i64 @strlen(i8* %24) #4
  %26 = trunc i64 %25 to i32
  store i32 %26, i32* %10, align 4
  %27 = load i32, i32* %9, align 4
  %28 = load i32, i32* %10, align 4
  %29 = icmp ne i32 %27, %28
  br i1 %29, label %30, label %32

30:                                               ; preds = %2
  %31 = call i32 (i8*, ...) @printf(i8* getelementptr inbounds ([3 x i8], [3 x i8]* @.str.1, i64 0, i64 0))
  br label %112

32:                                               ; preds = %2
  %33 = load i32, i32* %9, align 4
  %34 = load i32, i32* %10, align 4
  %35 = icmp eq i32 %33, %34
  br i1 %35, label %36, label %111

36:                                               ; preds = %32
  store i32 0, i32* %14, align 4
  br label %37

37:                                               ; preds = %84, %36
  %38 = load i32, i32* %14, align 4
  %39 = load i32, i32* %9, align 4
  %40 = icmp slt i32 %38, %39
  br i1 %40, label %41, label %87

41:                                               ; preds = %37
  %42 = load i32, i32* %14, align 4
  %43 = sext i32 %42 to i64
  %44 = getelementptr inbounds [100 x i32], [100 x i32]* %11, i64 0, i64 %43
  %45 = load i32, i32* %44, align 4
  %46 = icmp eq i32 %45, 0
  br i1 %46, label %47, label %83

47:                                               ; preds = %41
  store i32 0, i32* %15, align 4
  br label %48

48:                                               ; preds = %79, %47
  %49 = load i32, i32* %15, align 4
  %50 = load i32, i32* %9, align 4
  %51 = icmp slt i32 %49, %50
  br i1 %51, label %52, label %82

52:                                               ; preds = %48
  %53 = load i32, i32* %15, align 4
  %54 = sext i32 %53 to i64
  %55 = getelementptr inbounds [100 x i32], [100 x i32]* %12, i64 0, i64 %54
  %56 = load i32, i32* %55, align 4
  %57 = icmp eq i32 %56, 0
  br i1 %57, label %58, label %78

58:                                               ; preds = %52
  %59 = load i32, i32* %14, align 4
  %60 = sext i32 %59 to i64
  %61 = getelementptr inbounds [1000 x i8], [1000 x i8]* %6, i64 0, i64 %60
  %62 = load i8, i8* %61, align 1
  %63 = sext i8 %62 to i32
  %64 = load i32, i32* %15, align 4
  %65 = sext i32 %64 to i64
  %66 = getelementptr inbounds [1000 x i8], [1000 x i8]* %7, i64 0, i64 %65
  %67 = load i8, i8* %66, align 1
  %68 = sext i8 %67 to i32
  %69 = icmp eq i32 %63, %68
  br i1 %69, label %70, label %77

70:                                               ; preds = %58
  %71 = load i32, i32* %14, align 4
  %72 = sext i32 %71 to i64
  %73 = getelementptr inbounds [100 x i32], [100 x i32]* %11, i64 0, i64 %72
  store i32 1, i32* %73, align 4
  %74 = load i32, i32* %15, align 4
  %75 = sext i32 %74 to i64
  %76 = getelementptr inbounds [100 x i32], [100 x i32]* %12, i64 0, i64 %75
  store i32 1, i32* %76, align 4
  br label %82

77:                                               ; preds = %58
  br label %78

78:                                               ; preds = %77, %52
  br label %79

79:                                               ; preds = %78
  %80 = load i32, i32* %15, align 4
  %81 = add nsw i32 %80, 1
  store i32 %81, i32* %15, align 4
  br label %48

82:                                               ; preds = %70, %48
  br label %83

83:                                               ; preds = %82, %41
  br label %84

84:                                               ; preds = %83
  %85 = load i32, i32* %14, align 4
  %86 = add nsw i32 %85, 1
  store i32 %86, i32* %14, align 4
  br label %37

87:                                               ; preds = %37
  store i32 0, i32* %14, align 4
  br label %88

88:                                               ; preds = %99, %87
  %89 = load i32, i32* %14, align 4
  %90 = load i32, i32* %9, align 4
  %91 = icmp slt i32 %89, %90
  br i1 %91, label %92, label %102

92:                                               ; preds = %88
  %93 = load i32, i32* %13, align 4
  %94 = load i32, i32* %14, align 4
  %95 = sext i32 %94 to i64
  %96 = getelementptr inbounds [100 x i32], [100 x i32]* %11, i64 0, i64 %95
  %97 = load i32, i32* %96, align 4
  %98 = add nsw i32 %93, %97
  store i32 %98, i32* %13, align 4
  br label %99

99:                                               ; preds = %92
  %100 = load i32, i32* %14, align 4
  %101 = add nsw i32 %100, 1
  store i32 %101, i32* %14, align 4
  br label %88

102:                                              ; preds = %88
  %103 = load i32, i32* %13, align 4
  %104 = load i32, i32* %9, align 4
  %105 = icmp eq i32 %103, %104
  br i1 %105, label %106, label %108

106:                                              ; preds = %102
  %107 = call i32 (i8*, ...) @printf(i8* getelementptr inbounds ([4 x i8], [4 x i8]* @.str.2, i64 0, i64 0))
  br label %110

108:                                              ; preds = %102
  %109 = call i32 (i8*, ...) @printf(i8* getelementptr inbounds ([3 x i8], [3 x i8]* @.str.1, i64 0, i64 0))
  br label %110

110:                                              ; preds = %108, %106
  br label %111

111:                                              ; preds = %110, %32
  br label %112

112:                                              ; preds = %111, %30
  ret i32 0
}

; Function Attrs: argmemonly nounwind willreturn
declare void @llvm.memset.p0i8.i64(i8* nocapture writeonly, i8, i64, i1 immarg) #1

declare dso_local i32 @__isoc99_scanf(i8*, ...) #2

; Function Attrs: nounwind readonly
declare dso_local i64 @strlen(i8*) #3

declare dso_local i32 @printf(i8*, ...) #2


!llvm.module.flags = !{!0}
!llvm.ident = !{!1}

!0 = !{i32 1, !"wchar_size", i32 4}
!1 = !{!"clang version 10.0.0-4ubuntu1 "}
